target datalayout = "e-m:e-p270:32:32-p271:32:32-p272:64:64-i64:64-i128:128-f80:128-n8:16:32:64-S128"
target triple = "x86_64-pc-linux-gnu"

%struct.dsa_area_control = type { %struct.dsa_segment_header, i32, [1024 x i32], [16 x i64], [38 x %struct.dsa_area_pool], i64, i64, i64, i64, i64, i32, i8, i64, i32, %struct.LWLock }
%struct.dsa_segment_header = type { i32, i64, i64, i64, i64, i64, i8 }
%struct.dsa_area_pool = type { %struct.LWLock, [4 x i64] }
%struct.LWLock = type { i16, %struct.pg_atomic_uint32, %struct.proclist_head }
%struct.pg_atomic_uint32 = type { i32 }
%struct.proclist_head = type { i32, i32 }
%struct.dsa_area = type { ptr, ptr, [1024 x %struct.dsa_segment_map], i64, i64 }
%struct.dsa_segment_map = type { ptr, ptr, ptr, ptr, ptr }

@.str.1 = private unnamed_addr constant [6 x i8] c"dsa.c\00", align 1
@.str.24 = private unnamed_addr constant [54 x i8] c"dsa_area space must be at least %zu, but %zu provided\00", align 1
@__func__.create_internal = private unnamed_addr constant [16 x i8] c"create_internal\00", align 1
@CurrentResourceOwner = external global ptr, align 8

; Function Attrs: inlinehint nounwind uwtable
define internal i32 @pg_leftmost_one_pos64(i64 noundef %0) #3 {
  %2 = alloca i64, align 8
  store i64 %0, ptr %2, align 8
  %3 = load i64, ptr %2, align 8
  %4 = call i64 @llvm.ctlz.i64(i64 %3, i1 true)
  %5 = trunc i64 %4 to i32
  %6 = sub i32 63, %5
  ret i32 %6
}

; Function Attrs: inlinehint nounwind uwtable
define internal i64 @contiguous_pages_to_segment_bin(i64 noundef %0) #3 {
  %2 = alloca i64, align 8
  %3 = alloca i64, align 8
  store i64 %0, ptr %2, align 8
  call void @llvm.lifetime.start.p0(i64 8, ptr %3) #8
  %4 = load i64, ptr %2, align 8
  %5 = icmp eq i64 %4, 0
  br i1 %5, label %6, label %7

6:                                                ; preds = %1
  store i64 0, ptr %3, align 8
  br label %12

7:                                                ; preds = %1
  %8 = load i64, ptr %2, align 8
  %9 = call i32 @pg_leftmost_one_pos64(i64 noundef %8)
  %10 = add i32 %9, 1
  %11 = sext i32 %10 to i64
  store i64 %11, ptr %3, align 8
  br label %12

12:                                               ; preds = %7, %6
  %13 = load i64, ptr %3, align 8
  %14 = icmp ult i64 %13, 15
  br i1 %14, label %15, label %17

15:                                               ; preds = %12
  %16 = load i64, ptr %3, align 8
  br label %18

17:                                               ; preds = %12
  br label %18

18:                                               ; preds = %17, %15
  %19 = phi i64 [ %16, %15 ], [ 15, %17 ]
  call void @llvm.lifetime.end.p0(i64 8, ptr %3) #8
  ret i64 %19
}

; Function Attrs: nounwind uwtable
define internal ptr @create_internal(ptr noundef %0, i64 noundef %1, i32 noundef %2, i32 noundef %3, ptr noundef %4, i64 noundef %5, i64 noundef %6) #0 {
  %8 = alloca ptr, align 8
  %9 = alloca i64, align 8
  %10 = alloca i32, align 4
  %11 = alloca i32, align 4
  %12 = alloca ptr, align 8
  %13 = alloca i64, align 8
  %14 = alloca i64, align 8
  %15 = alloca ptr, align 8
  %16 = alloca ptr, align 8
  %17 = alloca ptr, align 8
  %18 = alloca i64, align 8
  %19 = alloca i64, align 8
  %20 = alloca i64, align 8
  %21 = alloca i32, align 4
  store ptr %0, ptr %8, align 8
  store i64 %1, ptr %9, align 8
  store i32 %2, ptr %10, align 4
  store i32 %3, ptr %11, align 4
  store ptr %4, ptr %12, align 8
  store i64 %5, ptr %13, align 8
  store i64 %6, ptr %14, align 8
  call void @llvm.lifetime.start.p0(i64 8, ptr %15) #8
  call void @llvm.lifetime.start.p0(i64 8, ptr %16) #8
  call void @llvm.lifetime.start.p0(i64 8, ptr %17) #8
  call void @llvm.lifetime.start.p0(i64 8, ptr %18) #8
  call void @llvm.lifetime.start.p0(i64 8, ptr %19) #8
  call void @llvm.lifetime.start.p0(i64 8, ptr %20) #8
  call void @llvm.lifetime.start.p0(i64 4, ptr %21) #8
  %22 = load i64, ptr %9, align 8
  %23 = call i64 @dsa_minimum_size()
  %24 = icmp ult i64 %22, %23
  br i1 %24, label %25, label %38

25:                                               ; preds = %7
  br label %26

26:                                               ; preds = %25
  br i1 true, label %27, label %29

27:                                               ; preds = %26
  %28 = call zeroext i1 @errstart_cold(i32 noundef 21, ptr noundef null) #9
  br i1 %28, label %31, label %35

29:                                               ; preds = %26
  %30 = call zeroext i1 @errstart(i32 noundef 21, ptr noundef null)
  br i1 %30, label %31, label %35

31:                                               ; preds = %29, %27
  %32 = call i64 @dsa_minimum_size()
  %33 = load i64, ptr %9, align 8
  %34 = call i32 (ptr, ...) @errmsg_internal(ptr noundef @.str.24, i64 noundef %32, i64 noundef %33)
  call void @errfinish(ptr noundef @.str.1, i32 noundef 1240, ptr noundef @__func__.create_internal)
  br label %35

35:                                               ; preds = %31, %29, %27
  unreachable

36:                                               ; No predecessors!
  br label %37

37:                                               ; preds = %36
  br label %38

38:                                               ; preds = %37, %7
  %39 = load i64, ptr %9, align 8
  %40 = udiv i64 %39, 4096
  store i64 %40, ptr %19, align 8
  %41 = load i64, ptr %19, align 8
  %42 = mul i64 %41, 8
  %43 = add i64 7288, %42
  store i64 %43, ptr %20, align 8
  %44 = load i64, ptr %20, align 8
  %45 = urem i64 %44, 4096
  %46 = icmp ne i64 %45, 0
  br i1 %46, label %47, label %53

47:                                               ; preds = %38
  %48 = load i64, ptr %20, align 8
  %49 = urem i64 %48, 4096
  %50 = sub i64 4096, %49
  %51 = load i64, ptr %20, align 8
  %52 = add i64 %51, %50
  store i64 %52, ptr %20, align 8
  br label %53

53:                                               ; preds = %47, %38
  %54 = load i64, ptr %9, align 8
  %55 = load i64, ptr %20, align 8
  %56 = sub i64 %54, %55
  %57 = udiv i64 %56, 4096
  store i64 %57, ptr %18, align 8
  %58 = load ptr, ptr %8, align 8
  store ptr %58, ptr %15, align 8
  %59 = load ptr, ptr %8, align 8
  call void @llvm.memset.p0.i64(ptr align 1 %59, i8 0, i64 6192, i1 false)
  %60 = load i32, ptr %11, align 4
  %61 = xor i32 216163848, %60
  %62 = xor i32 %61, 0
  %63 = load ptr, ptr %15, align 8
  %64 = getelementptr inbounds nuw %struct.dsa_area_control, ptr %63, i32 0, i32 0
  %65 = getelementptr inbounds nuw %struct.dsa_segment_header, ptr %64, i32 0, i32 0
  store i32 %62, ptr %65, align 8
  %66 = load ptr, ptr %15, align 8
  %67 = getelementptr inbounds nuw %struct.dsa_area_control, ptr %66, i32 0, i32 0
  %68 = getelementptr inbounds nuw %struct.dsa_segment_header, ptr %67, i32 0, i32 4
  store i64 -1, ptr %68, align 8
  %69 = load ptr, ptr %15, align 8
  %70 = getelementptr inbounds nuw %struct.dsa_area_control, ptr %69, i32 0, i32 0
  %71 = getelementptr inbounds nuw %struct.dsa_segment_header, ptr %70, i32 0, i32 3
  store i64 -1, ptr %71, align 8
  %72 = load i64, ptr %18, align 8
  %73 = load ptr, ptr %15, align 8
  %74 = getelementptr inbounds nuw %struct.dsa_area_control, ptr %73, i32 0, i32 0
  %75 = getelementptr inbounds nuw %struct.dsa_segment_header, ptr %74, i32 0, i32 1
  store i64 %72, ptr %75, align 8
  %76 = load ptr, ptr %15, align 8
  %77 = getelementptr inbounds nuw %struct.dsa_area_control, ptr %76, i32 0, i32 0
  %78 = getelementptr inbounds nuw %struct.dsa_segment_header, ptr %77, i32 0, i32 6
  store i8 0, ptr %78, align 8
  %79 = load i64, ptr %9, align 8
  %80 = load ptr, ptr %15, align 8
  %81 = getelementptr inbounds nuw %struct.dsa_area_control, ptr %80, i32 0, i32 0
  %82 = getelementptr inbounds nuw %struct.dsa_segment_header, ptr %81, i32 0, i32 2
  store i64 %79, ptr %82, align 8
  %83 = load i32, ptr %11, align 4
  %84 = load ptr, ptr %15, align 8
  %85 = getelementptr inbounds nuw %struct.dsa_area_control, ptr %84, i32 0, i32 1
  store i32 %83, ptr %85, align 8
  %86 = load i64, ptr %13, align 8
  %87 = load ptr, ptr %15, align 8
  %88 = getelementptr inbounds nuw %struct.dsa_area_control, ptr %87, i32 0, i32 5
  store i64 %86, ptr %88, align 8
  %89 = load i64, ptr %14, align 8
  %90 = load ptr, ptr %15, align 8
  %91 = getelementptr inbounds nuw %struct.dsa_area_control, ptr %90, i32 0, i32 6
  store i64 %89, ptr %91, align 8
  %92 = load ptr, ptr %15, align 8
  %93 = getelementptr inbounds nuw %struct.dsa_area_control, ptr %92, i32 0, i32 8
  store i64 -1, ptr %93, align 8
  %94 = load i64, ptr %9, align 8
  %95 = load ptr, ptr %15, align 8
  %96 = getelementptr inbounds nuw %struct.dsa_area_control, ptr %95, i32 0, i32 7
  store i64 %94, ptr %96, align 8
  %97 = load i32, ptr %11, align 4
  %98 = load ptr, ptr %15, align 8
  %99 = getelementptr inbounds nuw %struct.dsa_area_control, ptr %98, i32 0, i32 2
  %100 = getelementptr inbounds [1024 x i32], ptr %99, i64 0, i64 0
  store i32 %97, ptr %100, align 4
  store i32 0, ptr %21, align 4
  br label %101

101:                                              ; preds = %110, %53
  %102 = load i32, ptr %21, align 4
  %103 = icmp slt i32 %102, 16
  br i1 %103, label %104, label %113

104:                                              ; preds = %101
  %105 = load ptr, ptr %15, align 8
  %106 = getelementptr inbounds nuw %struct.dsa_area_control, ptr %105, i32 0, i32 3
  %107 = load i32, ptr %21, align 4
  %108 = sext i32 %107 to i64
  %109 = getelementptr inbounds [16 x i64], ptr %106, i64 0, i64 %108
  store i64 -1, ptr %109, align 8
  br label %110

110:                                              ; preds = %104
  %111 = load i32, ptr %21, align 4
  %112 = add i32 %111, 1
  store i32 %112, ptr %21, align 4
  br label %101, !llvm.loop !4

113:                                              ; preds = %101
  %114 = load ptr, ptr %15, align 8
  %115 = getelementptr inbounds nuw %struct.dsa_area_control, ptr %114, i32 0, i32 10
  store i32 1, ptr %115, align 8
  %116 = load i32, ptr %10, align 4
  %117 = load ptr, ptr %15, align 8
  %118 = getelementptr inbounds nuw %struct.dsa_area_control, ptr %117, i32 0, i32 13
  store i32 %116, ptr %118, align 8
  %119 = call ptr @palloc(i64 noundef 40992)
  store ptr %119, ptr %16, align 8
  %120 = load ptr, ptr %15, align 8
  %121 = load ptr, ptr %16, align 8
  %122 = getelementptr inbounds nuw %struct.dsa_area, ptr %121, i32 0, i32 0
  store ptr %120, ptr %122, align 8
  %123 = load ptr, ptr @CurrentResourceOwner, align 8
  %124 = load ptr, ptr %16, align 8
  %125 = getelementptr inbounds nuw %struct.dsa_area, ptr %124, i32 0, i32 1
  store ptr %123, ptr %125, align 8
  %126 = load ptr, ptr %16, align 8
  %127 = getelementptr inbounds nuw %struct.dsa_area, ptr %126, i32 0, i32 2
  %128 = getelementptr inbounds [1024 x %struct.dsa_segment_map], ptr %127, i64 0, i64 0
  call void @llvm.memset.p0.i64(ptr align 8 %128, i8 0, i64 40960, i1 false)
  %129 = load ptr, ptr %16, align 8
  %130 = getelementptr inbounds nuw %struct.dsa_area, ptr %129, i32 0, i32 3
  store i64 0, ptr %130, align 8
  %131 = load ptr, ptr %16, align 8
  %132 = getelementptr inbounds nuw %struct.dsa_area, ptr %131, i32 0, i32 4
  store i64 0, ptr %132, align 8
  %133 = load ptr, ptr %15, align 8
  %134 = getelementptr inbounds nuw %struct.dsa_area_control, ptr %133, i32 0, i32 14
  %135 = load ptr, ptr %15, align 8
  %136 = getelementptr inbounds nuw %struct.dsa_area_control, ptr %135, i32 0, i32 13
  %137 = load i32, ptr %136, align 8
  call void @LWLockInitialize(ptr noundef %134, i32 noundef %137)
  store i32 0, ptr %21, align 4
  br label %138

138:                                              ; preds = %154, %113
  %139 = load i32, ptr %21, align 4
  %140 = sext i32 %139 to i64
  %141 = icmp ult i64 %140, 38
  br i1 %141, label %142, label %157

142:                                              ; preds = %138
  %143 = load ptr, ptr %16, align 8
  %144 = getelementptr inbounds nuw %struct.dsa_area, ptr %143, i32 0, i32 0
  %145 = load ptr, ptr %144, align 8
  %146 = getelementptr inbounds nuw %struct.dsa_area_control, ptr %145, i32 0, i32 4
  %147 = load i32, ptr %21, align 4
  %148 = sext i32 %147 to i64
  %149 = getelementptr inbounds [38 x %struct.dsa_area_pool], ptr %146, i64 0, i64 %148
  %150 = getelementptr inbounds nuw %struct.dsa_area_pool, ptr %149, i32 0, i32 0
  %151 = load ptr, ptr %15, align 8
  %152 = getelementptr inbounds nuw %struct.dsa_area_control, ptr %151, i32 0, i32 13
  %153 = load i32, ptr %152, align 8
  call void @LWLockInitialize(ptr noundef %150, i32 noundef %153)
  br label %154

154:                                              ; preds = %142
  %155 = load i32, ptr %21, align 4
  %156 = add i32 %155, 1
  store i32 %156, ptr %21, align 4
  br label %138, !llvm.loop !6

157:                                              ; preds = %138
  %158 = load ptr, ptr %16, align 8
  %159 = getelementptr inbounds nuw %struct.dsa_area, ptr %158, i32 0, i32 2
  %160 = getelementptr inbounds [1024 x %struct.dsa_segment_map], ptr %159, i64 0, i64 0
  store ptr %160, ptr %17, align 8
  %161 = load ptr, ptr %12, align 8
  %162 = load ptr, ptr %17, align 8
  %163 = getelementptr inbounds nuw %struct.dsa_segment_map, ptr %162, i32 0, i32 0
  store ptr %161, ptr %163, align 8
  %164 = load ptr, ptr %8, align 8
  %165 = load ptr, ptr %17, align 8
  %166 = getelementptr inbounds nuw %struct.dsa_segment_map, ptr %165, i32 0, i32 1
  store ptr %164, ptr %166, align 8
  %167 = load ptr, ptr %8, align 8
  %168 = load ptr, ptr %17, align 8
  %169 = getelementptr inbounds nuw %struct.dsa_segment_map, ptr %168, i32 0, i32 2
  store ptr %167, ptr %169, align 8
  %170 = load ptr, ptr %17, align 8
  %171 = getelementptr inbounds nuw %struct.dsa_segment_map, ptr %170, i32 0, i32 1
  %172 = load ptr, ptr %171, align 8
  %173 = getelementptr inbounds nuw i8, ptr %172, i64 6192
  %174 = load ptr, ptr %17, align 8
  %175 = getelementptr inbounds nuw %struct.dsa_segment_map, ptr %174, i32 0, i32 3
  store ptr %173, ptr %175, align 8
  %176 = load ptr, ptr %17, align 8
  %177 = getelementptr inbounds nuw %struct.dsa_segment_map, ptr %176, i32 0, i32 1
  %178 = load ptr, ptr %177, align 8
  %179 = getelementptr inbounds nuw i8, ptr %178, i64 6192
  %180 = getelementptr inbounds nuw i8, ptr %179, i64 1096
  %181 = load ptr, ptr %17, align 8
  %182 = getelementptr inbounds nuw %struct.dsa_segment_map, ptr %181, i32 0, i32 4
  store ptr %180, ptr %182, align 8
  %183 = load ptr, ptr %17, align 8
  %184 = getelementptr inbounds nuw %struct.dsa_segment_map, ptr %183, i32 0, i32 3
  %185 = load ptr, ptr %184, align 8
  %186 = load ptr, ptr %17, align 8
  %187 = getelementptr inbounds nuw %struct.dsa_segment_map, ptr %186, i32 0, i32 1
  %188 = load ptr, ptr %187, align 8
  call void @FreePageManagerInitialize(ptr noundef %185, ptr noundef %188)
  %189 = load i64, ptr %18, align 8
  %190 = icmp ugt i64 %189, 0
  br i1 %190, label %191, label %198

191:                                              ; preds = %157
  %192 = load ptr, ptr %17, align 8
  %193 = getelementptr inbounds nuw %struct.dsa_segment_map, ptr %192, i32 0, i32 3
  %194 = load ptr, ptr %193, align 8
  %195 = load i64, ptr %20, align 8
  %196 = udiv i64 %195, 4096
  %197 = load i64, ptr %18, align 8
  call void @FreePageManagerPut(ptr noundef %194, i64 noundef %196, i64 noundef %197)
  br label %198

198:                                              ; preds = %191, %157
  %199 = load ptr, ptr %15, align 8
  %200 = getelementptr inbounds nuw %struct.dsa_area_control, ptr %199, i32 0, i32 3
  %201 = load i64, ptr %18, align 8
  %202 = call i64 @contiguous_pages_to_segment_bin(i64 noundef %201)
  %203 = getelementptr inbounds nuw [16 x i64], ptr %200, i64 0, i64 %202
  store i64 0, ptr %203, align 8
  %204 = load i64, ptr %18, align 8
  %205 = call i64 @contiguous_pages_to_segment_bin(i64 noundef %204)
  %206 = load ptr, ptr %17, align 8
  %207 = getelementptr inbounds nuw %struct.dsa_segment_map, ptr %206, i32 0, i32 2
  %208 = load ptr, ptr %207, align 8
  %209 = getelementptr inbounds nuw %struct.dsa_segment_header, ptr %208, i32 0, i32 5
  store i64 %205, ptr %209, align 8
  %210 = load ptr, ptr %16, align 8
  call void @llvm.lifetime.end.p0(i64 4, ptr %21) #8
  call void @llvm.lifetime.end.p0(i64 8, ptr %20) #8
  call void @llvm.lifetime.end.p0(i64 8, ptr %19) #8
  call void @llvm.lifetime.end.p0(i64 8, ptr %18) #8
  call void @llvm.lifetime.end.p0(i64 8, ptr %17) #8
  call void @llvm.lifetime.end.p0(i64 8, ptr %16) #8
  call void @llvm.lifetime.end.p0(i64 8, ptr %15) #8
  ret ptr %210
}