; Function Attrs: nounwind uwtable
define internal fastcc noundef ptr @create_internal(ptr noundef %0, i64 noundef %1, i32 noundef %2, i32 noundef %3, ptr noundef %4, i64 noundef %5, i64 noundef %6) unnamed_addr #0 {
  br label %8

8:                                                ; preds = %8, %7
  %.07.i = phi i32 [ 0, %7 ], [ %9, %8 ]
  %.056.i = phi i64 [ 7288, %7 ], [ %10, %8 ]
  %9 = add i32 %.07.i, 1
  %10 = add i64 %.056.i, 8
  %.reass.i = add i64 %.056.i, 4103
  %11 = lshr i64 %.reass.i, 12
  %12 = sext i32 %9 to i64
  %13 = icmp ugt i64 %11, %12
  br i1 %13, label %8, label %dsa_minimum_size.exit, !llvm.loop !4

dsa_minimum_size.exit:                            ; preds = %8
  %14 = shl i32 %9, 12
  %15 = sext i32 %14 to i64
  %16 = icmp ult i64 %1, %15
  br i1 %16, label %17, label %21

17:                                               ; preds = %dsa_minimum_size.exit
  %18 = tail call zeroext i1 @errstart_cold(i32 noundef 21, ptr noundef null) #12
  tail call void @llvm.assume(i1 %18)
  %19 = tail call i64 @dsa_minimum_size()
  %20 = tail call i32 (ptr, ...) @errmsg_internal(ptr noundef nonnull @.str.24, i64 noundef %19, i64 noundef %1) #11
  tail call void @errfinish(ptr noundef nonnull @.str.1, i32 noundef 1240, ptr noundef nonnull @__func__.create_internal) #11
  unreachable

21:                                               ; preds = %dsa_minimum_size.exit
  %22 = lshr i64 %1, 9
  %23 = and i64 %22, 36028797018963960
  %24 = add nuw nsw i64 %23, 7288
  %25 = and i64 %24, 4088
  %.not = icmp eq i64 %25, 0
  %26 = add nuw nsw i64 %23, 11384
  %27 = sub nuw nsw i64 %26, %25
  %.072 = select i1 %.not, i64 %24, i64 %27
  %28 = sub i64 %1, %.072
  %29 = lshr i64 %28, 12
  %30 = getelementptr inbounds nuw i8, ptr %0, i64 4
  tail call void @llvm.memset.p0.i64(ptr noundef nonnull align 1 dereferenceable(6192) %30, i8 0, i64 6188, i1 false)
  %31 = xor i32 %3, 216163848
  store i32 %31, ptr %0, align 8
  %32 = getelementptr inbounds nuw i8, ptr %0, i64 24
  %33 = getelementptr inbounds nuw i8, ptr %0, i64 8
  tail call void @llvm.memset.p0.i64(ptr noundef nonnull align 8 dereferenceable(16) %32, i8 -1, i64 16, i1 false)
  store i64 %29, ptr %33, align 8
  %34 = getelementptr inbounds nuw i8, ptr %0, i64 16
  store i64 %1, ptr %34, align 8
  %35 = getelementptr inbounds nuw i8, ptr %0, i64 56
  store i32 %3, ptr %35, align 8
  %36 = getelementptr inbounds nuw i8, ptr %0, i64 6112
  store i64 %5, ptr %36, align 8
  %37 = getelementptr inbounds nuw i8, ptr %0, i64 6120
  store i64 %6, ptr %37, align 8
  %38 = getelementptr inbounds nuw i8, ptr %0, i64 6136
  store i64 -1, ptr %38, align 8
  %39 = getelementptr inbounds nuw i8, ptr %0, i64 6128
  store i64 %1, ptr %39, align 8
  %40 = getelementptr inbounds nuw i8, ptr %0, i64 60
  store i32 %3, ptr %40, align 4
  %41 = getelementptr inbounds nuw i8, ptr %0, i64 4160
  tail call void @llvm.memset.p0.i64(ptr noundef nonnull align 8 dereferenceable(128) %41, i8 -1, i64 128, i1 false)
  %42 = getelementptr inbounds nuw i8, ptr %0, i64 6152
  store i32 1, ptr %42, align 8
  %43 = getelementptr inbounds nuw i8, ptr %0, i64 6168
  store i32 %2, ptr %43, align 8
  %44 = tail call ptr @palloc(i64 noundef 40992) #11
  store ptr %0, ptr %44, align 8
  %45 = load ptr, ptr @CurrentResourceOwner, align 8
  %46 = getelementptr inbounds nuw i8, ptr %44, i64 8
  store ptr %45, ptr %46, align 8
  %47 = getelementptr inbounds nuw i8, ptr %44, i64 16
  %48 = getelementptr inbounds nuw i8, ptr %0, i64 6172
  tail call void @llvm.memset.p0.i64(ptr noundef nonnull align 8 dereferenceable(40976) %47, i8 0, i64 40976, i1 false)
  %49 = load i32, ptr %43, align 8
  tail call void @LWLockInitialize(ptr noundef nonnull %48, i32 noundef %49) #11
  br label %50

50:                                               ; preds = %21, %50
  %indvars.iv = phi i64 [ 0, %21 ], [ %indvars.iv.next, %50 ]
  %51 = load ptr, ptr %44, align 8
  %52 = getelementptr inbounds nuw i8, ptr %51, i64 4288
  %53 = getelementptr inbounds nuw [38 x %struct.dsa_area_pool], ptr %52, i64 0, i64 %indvars.iv
  %54 = load i32, ptr %43, align 8
  tail call void @LWLockInitialize(ptr noundef nonnull %53, i32 noundef %54) #11
  %indvars.iv.next = add nuw nsw i64 %indvars.iv, 1
  %exitcond.not = icmp eq i64 %indvars.iv.next, 38
  br i1 %exitcond.not, label %55, label %50, !llvm.loop !6

55:                                               ; preds = %50
  store ptr %4, ptr %47, align 8
  %56 = getelementptr inbounds nuw i8, ptr %44, i64 24
  store ptr %0, ptr %56, align 8
  %57 = getelementptr inbounds nuw i8, ptr %44, i64 32
  store ptr %0, ptr %57, align 8
  %58 = getelementptr inbounds nuw i8, ptr %0, i64 6192
  %59 = getelementptr inbounds nuw i8, ptr %44, i64 40
  store ptr %58, ptr %59, align 8
  %60 = getelementptr inbounds nuw i8, ptr %0, i64 7288
  %61 = getelementptr inbounds nuw i8, ptr %44, i64 48
  store ptr %60, ptr %61, align 8
  tail call void @FreePageManagerInitialize(ptr noundef nonnull %58, ptr noundef nonnull %0) #11
  %.not78 = icmp ult i64 %28, 4096
  br i1 %.not78, label %65, label %62

62:                                               ; preds = %55
  %63 = load ptr, ptr %59, align 8
  %64 = lshr i64 %.072, 12
  tail call void @FreePageManagerPut(ptr noundef %63, i64 noundef %64, i64 noundef %29) #11
  br label %65

65:                                               ; preds = %62, %55
  %66 = tail call range(i64 0, 65) i64 @llvm.ctlz.i64(i64 range(i64 1, 0) %29, i1 true)
  %67 = sub nuw nsw i64 64, %66
  %68 = tail call i64 @llvm.umin.i64(i64 %67, i64 15)
  %69 = select i1 %.not78, i64 0, i64 %68
  %70 = getelementptr inbounds nuw [16 x i64], ptr %41, i64 0, i64 %69
  store i64 0, ptr %70, align 8
  %71 = load ptr, ptr %57, align 8
  %72 = getelementptr inbounds nuw i8, ptr %71, i64 40
  store i64 %69, ptr %72, align 8
  ret ptr %44
}